ccopy_reg
_reconstructor
p0
(csklearn.linear_model.base
LinearRegression
p1
cdill._dill
_load_type
p2
(S'ObjectType'
p3
tp4
Rp5
Ntp6
Rp7
(dp8
S'normalize'
p9
I00
sS'n_jobs'
p10
NsS'rank_'
p11
I1
sS'fit_intercept'
p12
I01
sS'_residues'
p13
cnumpy.core.multiarray
scalar
p14
(cnumpy
dtype
p15
(S'f8'
p16
I0
I1
tp17
Rp18
(I3
S'<'
p19
NNNI-1
I-1
I0
tp20
bS'\x00\x00l#!\x11,;'
p21
tp22
Rp23
sS'coef_'
p24
cnumpy.core.multiarray
_reconstruct
p25
(cnumpy
ndarray
p26
(I0
tp27
S'b'
p28
tp29
Rp30
(I1
(I1
tp31
g18
I00
S'\x03\x00\x00\x00\x00\x00\xf0?'
p32
tp33
bsS'_sklearn_version'
p34
S'0.20.4'
p35
sS'copy_X'
p36
I01
sS'intercept_'
p37
g14
(g18
S'\x00\x00\x00\x00\x00\x00X\xbd'
p38
tp39
Rp40
sS'singular_'
p41
g25
(g26
(I0
tp42
g28
tp43
Rp44
(I1
(I1
tp45
g18
I00
S'\xbc\x01\x0f[\xa6\t\xb5@'
p46
tp47
bsb.